; Function Attrs: nounwind uwtable
define ptr @l_Std_Time_Nanosecond_instOfNatOrdinal(ptr noundef %0) local_unnamed_addr #0 {
  %2 = ptrtoint ptr %0 to i64
  %3 = and i64 %2, 1
  %.not.i = icmp eq i64 %3, 0
  br i1 %.not.i, label %.critedge.i, label %4, !prof !11

4:                                                ; preds = %1
  %5 = lshr i64 %2, 1
  %6 = urem i64 %5, 1000000000
  %7 = shl nuw nsw i64 %6, 1
  %8 = or disjoint i64 %7, 1
  %9 = inttoptr i64 %8 to ptr
  br label %lean_nat_mod.exit

.critedge.i:                                      ; preds = %1
  %10 = tail call ptr @lean_nat_big_mod(ptr noundef %0, ptr noundef nonnull inttoptr (i64 2000000001 to ptr)) #3
  br label %lean_nat_mod.exit

lean_nat_mod.exit:                                ; preds = %4, %.critedge.i
  %.1.i = phi ptr [ %10, %.critedge.i ], [ %9, %4 ]
  %11 = ptrtoint ptr %.1.i to i64
  %12 = and i64 %11, 1
  %.not.i4 = icmp eq i64 %12, 0
  %13 = icmp ult ptr %.1.i, inttoptr (i64 4294967296 to ptr)
  %or.cond.i = or i1 %13, %.not.i4
  br i1 %or.cond.i, label %lean_nat_to_int.exit, label %14

14:                                               ; preds = %lean_nat_mod.exit
  %15 = lshr i64 %11, 1
  %16 = tail call ptr @lean_big_size_t_to_int(i64 noundef %15) #3
  br label %lean_nat_to_int.exit

lean_nat_to_int.exit:                             ; preds = %lean_nat_mod.exit, %14
  %.1.i5 = phi ptr [ %16, %14 ], [ %.1.i, %lean_nat_mod.exit ]
  ret ptr %.1.i5
}